Certificate:
    Data:
        Version: 3 (0x2)
        Serial Number: 5 (0x5)
    Signature Algorithm: sha256WithRSAEncryption
        Issuer: C=FR, ST=RA, L=Grenoble, O=OSSI Lab, OU=HP Solution Innovation Center, CN=OSSI Lab CA/name=EasyRSA/emailAddress=pingouin@hp.com
        Validity
            Not Before: Jan 28 16:09:49 2015 GMT
            Not After : Jan 23 16:09:49 2035 GMT
        Subject: C=FR, ST=RA, L=Grenoble, O=OSSI Lab, OU=HP Solution Innovation Center, CN=lab4/name=EasyRSA/emailAddress=pingouin@hp.com
        Subject Public Key Info:
            Public Key Algorithm: rsaEncryption
                Public-Key: (2048 bit)
                Modulus:
                    00:d2:a6:aa:2d:6e:4d:ac:b0:88:9c:0e:ed:81:0c:
                    b5:05:fd:f5:50:01:62:a5:30:ff:d5:74:f8:a8:1c:
                    bd:de:6d:6e:6a:c0:0d:e7:59:48:fb:67:8d:99:f3:
                    bc:56:f2:cb:f0:b9:90:35:d9:27:2d:c4:8f:87:11:
                    54:19:f9:df:09:71:aa:19:11:76:4d:65:26:59:43:
                    0d:c9:81:13:5c:36:cc:bb:cd:fe:be:36:5c:ff:a1:
                    48:e1:4a:c0:a5:47:7f:85:9c:d7:8d:88:86:87:d7:
                    4a:f1:eb:eb:a2:3f:34:4c:d7:2a:ad:c7:97:dc:ba:
                    e8:7e:6a:2a:35:6f:c4:85:e7:56:5f:04:13:bc:2e:
                    62:68:71:1b:fd:d0:dd:67:f1:50:3e:ff:1a:4e:61:
                    cb:63:07:69:61:6a:d5:42:e2:84:46:7a:3f:c8:e4:
                    19:8c:f4:26:4e:b4:80:52:de:04:12:c4:e0:54:a8:
                    ee:b8:4a:59:91:23:d6:ce:00:c6:5f:f7:f1:e0:65:
                    c1:8e:ab:36:dd:4c:85:e9:98:c4:c1:a1:71:2c:c9:
                    8d:44:0b:b5:ea:75:6e:63:32:27:9a:d1:69:d3:49:
                    c8:8a:01:b0:7c:91:d5:fb:99:b8:00:30:bd:6a:98:
                    c5:e7:96:b1:29:33:2b:2f:a7:5a:47:46:b3:f7:a2:
                    d2:0b
                Exponent: 65537 (0x10001)
        X509v3 extensions:
            X509v3 Basic Constraints: 
                CA:FALSE
            Netscape Comment: 
                Easy-RSA Generated Certificate
            X509v3 Subject Key Identifier: 
                6F:AB:6A:19:6F:F7:A5:15:A0:46:6B:06:B8:FE:23:B8:68:8D:92:80
            X509v3 Authority Key Identifier: 
                keyid:E6:19:D2:0F:27:9D:B2:96:10:EB:C6:1A:14:00:6D:CF:D8:2C:70:9D
                DirName:/C=FR/ST=RA/L=Grenoble/O=OSSI Lab/OU=HP Solution Innovation Center/CN=OSSI Lab CA/name=EasyRSA/emailAddress=pingouin@hp.com
                serial:BF:41:0C:A8:35:80:AB:E4

            X509v3 Extended Key Usage: 
                TLS Web Client Authentication
            X509v3 Key Usage: 
                Digital Signature
    Signature Algorithm: sha256WithRSAEncryption
         1c:5e:85:89:53:98:42:d3:8f:40:32:15:7d:94:4d:8c:c6:45:
         14:25:e8:9c:e2:cc:e2:e9:c5:d5:4d:f0:8f:46:4e:53:ff:e5:
         3c:91:75:c2:52:b1:0a:57:99:d3:e3:01:06:9b:a0:c6:93:63:
         f1:52:fc:da:0a:16:7d:79:a6:c2:f4:09:7d:76:58:5f:35:d9:
         b8:ab:0e:22:01:6c:9d:72:af:9f:c3:f4:fc:2a:a5:4b:ac:65:
         b8:c4:01:3e:92:d8:33:35:17:d6:f4:01:a2:dd:49:1b:e7:e6:
         d1:d9:88:c0:7e:f0:84:95:c3:a0:25:34:cb:3e:84:2a:70:c2:
         da:dc:0c:22:8f:34:ed:ee:cd:73:87:f3:31:25:58:26:ec:f3:
         3b:e7:4a:81:da:01:c4:4f:43:69:d5:26:dc:f2:10:ef:22:72:
         e9:43:ed:77:16:cb:29:19:f5:85:59:c6:0f:e1:ca:0b:8c:25:
         99:da:66:13:92:76:ff:20:46:9a:2c:15:7e:3b:d3:df:c8:0c:
         46:28:ab:7a:34:d7:e2:c8:f4:8d:7a:9b:f5:c6:d0:d2:56:01:
         72:4b:a0:f3:61:a9:01:d4:51:13:83:a1:f0:20:a9:5f:11:36:
         a6:53:00:f7:a9:9f:b1:46:96:c2:b4:37:22:06:8f:03:e3:0b:
         07:8d:2c:84
-----BEGIN CERTIFICATE-----
MIIFPzCCBCegAwIBAgIBBTANBgkqhkiG9w0BAQsFADCBsDELMAkGA1UEBhMCRlIx
CzAJBgNVBAgTAlJBMREwDwYDVQQHEwhHcmVub2JsZTERMA8GA1UEChMIT1NTSSBM
YWIxJjAkBgNVBAsTHUhQIFNvbHV0aW9uIElubm92YXRpb24gQ2VudGVyMRQwEgYD
VQQDEwtPU1NJIExhYiBDQTEQMA4GA1UEKRMHRWFzeVJTQTEeMBwGCSqGSIb3DQEJ
ARYPcGluZ291aW5AaHAuY29tMB4XDTE1MDEyODE2MDk0OVoXDTM1MDEyMzE2MDk0
OVowgakxCzAJBgNVBAYTAkZSMQswCQYDVQQIEwJSQTERMA8GA1UEBxMIR3Jlbm9i
bGUxETAPBgNVBAoTCE9TU0kgTGFiMSYwJAYDVQQLEx1IUCBTb2x1dGlvbiBJbm5v
dmF0aW9uIENlbnRlcjENMAsGA1UEAxMEbGFiNDEQMA4GA1UEKRMHRWFzeVJTQTEe
MBwGCSqGSIb3DQEJARYPcGluZ291aW5AaHAuY29tMIIBIjANBgkqhkiG9w0BAQEF
AAOCAQ8AMIIBCgKCAQEA0qaqLW5NrLCInA7tgQy1Bf31UAFipTD/1XT4qBy93m1u
asAN51lI+2eNmfO8VvLL8LmQNdknLcSPhxFUGfnfCXGqGRF2TWUmWUMNyYETXDbM
u83+vjZc/6FI4UrApUd/hZzXjYiGh9dK8evroj80TNcqrceX3LrofmoqNW/EhedW
XwQTvC5iaHEb/dDdZ/FQPv8aTmHLYwdpYWrVQuKERno/yOQZjPQmTrSAUt4EEsTg
VKjuuEpZkSPWzgDGX/fx4GXBjqs23UyF6ZjEwaFxLMmNRAu16nVuYzInmtFp00nI
igGwfJHV+5m4ADC9apjF55axKTMrL6daR0az96LSCwIDAQABo4IBZzCCAWMwCQYD
VR0TBAIwADAtBglghkgBhvhCAQ0EIBYeRWFzeS1SU0EgR2VuZXJhdGVkIENlcnRp
ZmljYXRlMB0GA1UdDgQWBBRvq2oZb/elFaBGawa4/iO4aI2SgDCB5QYDVR0jBIHd
MIHagBTmGdIPJ52ylhDrxhoUAG3P2CxwnaGBtqSBszCBsDELMAkGA1UEBhMCRlIx
CzAJBgNVBAgTAlJBMREwDwYDVQQHEwhHcmVub2JsZTERMA8GA1UEChMIT1NTSSBM
YWIxJjAkBgNVBAsTHUhQIFNvbHV0aW9uIElubm92YXRpb24gQ2VudGVyMRQwEgYD
VQQDEwtPU1NJIExhYiBDQTEQMA4GA1UEKRMHRWFzeVJTQTEeMBwGCSqGSIb3DQEJ
ARYPcGluZ291aW5AaHAuY29tggkAv0EMqDWAq+QwEwYDVR0lBAwwCgYIKwYBBQUH
AwIwCwYDVR0PBAQDAgeAMA0GCSqGSIb3DQEBCwUAA4IBAQAcXoWJU5hC049AMhV9
lE2MxkUUJeic4szi6cXVTfCPRk5T/+U8kXXCUrEKV5nT4wEGm6DGk2PxUvzaChZ9
eabC9Al9dlhfNdm4qw4iAWydcq+fw/T8KqVLrGW4xAE+ktgzNRfW9AGi3Ukb5+bR
2YjAfvCElcOgJTTLPoQqcMLa3AwijzTt7s1zh/MxJVgm7PM750qB2gHET0Np1Sbc
8hDvInLpQ+13FsspGfWFWcYP4coLjCWZ2mYTknb/IEaaLBV+O9PfyAxGKKt6NNfi
yPSNepv1xtDSVgFyS6DzYakB1FETg6HwIKlfETamUwD3qZ+xRpbCtDciBo8D4wsH
jSyE
-----END CERTIFICATE-----
